target datalayout = "e-m:e-p270:32:32-p271:32:32-p272:64:64-i64:64-i128:128-f80:128-n8:16:32:64-S128"
target triple = "x86_64-pc-linux-gnu"

%struct.aiMaterial = type { ptr, i32, i32 }
%struct.aiMaterialProperty = type { %struct.aiString, i32, i32, i32, i32, ptr }
%struct.aiString = type { i32, [1024 x i8] }

; Function Attrs: mustprogress nounwind uwtable
define linkonce_odr hidden void @_ZN18aiMaterialPropertyD2Ev(ptr noundef nonnull align 8 dereferenceable(1056) %0) unnamed_addr #0 comdat align 2 {
  %2 = alloca ptr, align 8
  store ptr %0, ptr %2, align 8
  %3 = load ptr, ptr %2, align 8
  %4 = getelementptr inbounds nuw %struct.aiMaterialProperty, ptr %3, i32 0, i32 5
  %5 = load ptr, ptr %4, align 8
  %6 = icmp eq ptr %5, null
  br i1 %6, label %8, label %7

7:                                                ; preds = %1
  call void @_ZdaPv(ptr noundef %5) #21
  br label %8

8:                                                ; preds = %7, %1
  %9 = getelementptr inbounds nuw %struct.aiMaterialProperty, ptr %3, i32 0, i32 5
  store ptr null, ptr %9, align 8
  ret void
}

; Function Attrs: noinline noreturn nounwind uwtable
define linkonce_odr hidden void @__clang_call_terminate(ptr noundef %0) #9 comdat {
  %2 = call ptr @__cxa_begin_catch(ptr %0) #17
  call void @_ZSt9terminatev() #22
  unreachable
}

; Function Attrs: mustprogress nounwind uwtable
define void @_ZN10aiMaterial5ClearEv(ptr noundef nonnull align 8 dereferenceable(16) %0) #0 align 2 {
  %2 = alloca ptr, align 8
  %3 = alloca i32, align 4
  store ptr %0, ptr %2, align 8
  %4 = load ptr, ptr %2, align 8
  call void @llvm.lifetime.start.p0(i64 4, ptr %3) #17
  store i32 0, ptr %3, align 4
  br label %5

5:                                                ; preds = %21, %1
  %6 = load i32, ptr %3, align 4
  %7 = getelementptr inbounds nuw %struct.aiMaterial, ptr %4, i32 0, i32 1
  %8 = load i32, ptr %7, align 8
  %9 = icmp ult i32 %6, %8
  br i1 %9, label %11, label %10

10:                                               ; preds = %5
  call void @llvm.lifetime.end.p0(i64 4, ptr %3) #17
  br label %24

11:                                               ; preds = %5
  %12 = getelementptr inbounds nuw %struct.aiMaterial, ptr %4, i32 0, i32 0
  %13 = load ptr, ptr %12, align 8
  %14 = load i32, ptr %3, align 4
  %15 = zext i32 %14 to i64
  %16 = getelementptr inbounds nuw ptr, ptr %13, i64 %15
  %17 = load ptr, ptr %16, align 8
  %18 = icmp eq ptr %17, null
  br i1 %18, label %20, label %19

19:                                               ; preds = %11
  call void @_ZN18aiMaterialPropertyD2Ev(ptr noundef nonnull align 8 dereferenceable(1056) %17) #17
  call void @_ZdlPvm(ptr noundef %17, i64 noundef 1056) #21
  br label %20

20:                                               ; preds = %19, %11
  br label %21

21:                                               ; preds = %20
  %22 = load i32, ptr %3, align 4
  %23 = add i32 %22, 1
  store i32 %23, ptr %3, align 4
  br label %5, !llvm.loop !19

24:                                               ; preds = %10
  %25 = getelementptr inbounds nuw %struct.aiMaterial, ptr %4, i32 0, i32 1
  store i32 0, ptr %25, align 8
  ret void
}

; Function Attrs: mustprogress nounwind uwtable
define void @_ZN10aiMaterialD2Ev(ptr noundef nonnull align 8 dereferenceable(16) %0) unnamed_addr #0 align 2 personality ptr @__gxx_personality_v0 {
  %2 = alloca ptr, align 8
  store ptr %0, ptr %2, align 8
  %3 = load ptr, ptr %2, align 8
  invoke void @_ZN10aiMaterial5ClearEv(ptr noundef nonnull align 8 dereferenceable(16) %3)
          to label %4 unwind label %10

4:                                                ; preds = %1
  %5 = getelementptr inbounds nuw %struct.aiMaterial, ptr %3, i32 0, i32 0
  %6 = load ptr, ptr %5, align 8
  %7 = icmp eq ptr %6, null
  br i1 %7, label %9, label %8

8:                                                ; preds = %4
  call void @_ZdaPv(ptr noundef %6) #21
  br label %9

9:                                                ; preds = %8, %4
  ret void

10:                                               ; preds = %1
  %11 = landingpad { ptr, i32 }
          catch ptr null
  %12 = extractvalue { ptr, i32 } %11, 0
  call void @__clang_call_terminate(ptr %12) #22
  unreachable
}