; Function Attrs: mustprogress nounwind uwtable
define void @_ZN10aiMaterialD2Ev(ptr noundef nonnull align 8 captures(none) dereferenceable(16) %0) unnamed_addr #9 align 2 personality ptr @__gxx_personality_v0 {
  %2 = getelementptr inbounds nuw i8, ptr %0, i64 8
  %3 = load i32, ptr %2, align 8
  %.not.i = icmp eq i32 %3, 0
  br i1 %.not.i, label %_ZN10aiMaterial5ClearEv.exit, label %.lr.ph.i

.lr.ph.i:                                         ; preds = %1, %14
  %4 = phi i32 [ %15, %14 ], [ %3, %1 ]
  %indvars.iv.i = phi i64 [ %indvars.iv.next.i, %14 ], [ 0, %1 ]
  %5 = load ptr, ptr %0, align 8
  %6 = getelementptr inbounds nuw ptr, ptr %5, i64 %indvars.iv.i
  %7 = load ptr, ptr %6, align 8
  %8 = icmp eq ptr %7, null
  br i1 %8, label %14, label %9

9:                                                ; preds = %.lr.ph.i
  %10 = getelementptr inbounds nuw i8, ptr %7, i64 1048
  %11 = load ptr, ptr %10, align 8
  %12 = icmp eq ptr %11, null
  br i1 %12, label %_ZN18aiMaterialPropertyD2Ev.exit.i, label %13

13:                                               ; preds = %9
  tail call void @_ZdaPv(ptr noundef nonnull %11) #26
  br label %_ZN18aiMaterialPropertyD2Ev.exit.i

_ZN18aiMaterialPropertyD2Ev.exit.i:               ; preds = %13, %9
  tail call void @_ZdlPvm(ptr noundef nonnull %7, i64 noundef 1056) #26
  %.pre.i = load i32, ptr %2, align 8
  br label %14

14:                                               ; preds = %_ZN18aiMaterialPropertyD2Ev.exit.i, %.lr.ph.i
  %15 = phi i32 [ %4, %.lr.ph.i ], [ %.pre.i, %_ZN18aiMaterialPropertyD2Ev.exit.i ]
  %indvars.iv.next.i = add nuw nsw i64 %indvars.iv.i, 1
  %16 = zext i32 %15 to i64
  %17 = icmp samesign ult i64 %indvars.iv.next.i, %16
  br i1 %17, label %.lr.ph.i, label %_ZN10aiMaterial5ClearEv.exit, !llvm.loop !18

_ZN10aiMaterial5ClearEv.exit:                     ; preds = %14, %1
  store i32 0, ptr %2, align 8
  %18 = load ptr, ptr %0, align 8
  %19 = icmp eq ptr %18, null
  br i1 %19, label %21, label %20

20:                                               ; preds = %_ZN10aiMaterial5ClearEv.exit
  tail call void @_ZdaPv(ptr noundef nonnull %18) #26
  br label %21

21:                                               ; preds = %20, %_ZN10aiMaterial5ClearEv.exit
  ret void
}